target datalayout = "e-m:e-p270:32:32-p271:32:32-p272:64:64-i64:64-i128:128-f80:128-n8:16:32:64-S128"
target triple = "x86_64-pc-linux-gnu"

%struct._StringInfo = type { ptr, i32 }
%struct._SslSession = type { i32, i32, i16, i8, [32 x i8], i8, i8, i32, i32, i32, %struct._StringInfo, i8, i8, [8 x i8], [8 x i8], [16 x i8], %struct._address, i32, i32, ptr, ptr, ptr, i32, i8, i32, i32, ptr, ptr, i8, i8, i8, i8, i8, [2 x i64], [2 x i64] }
%struct._address = type { i32, i32, ptr, ptr }
%struct._packet_info = type { ptr, ptr, i32, i32, %struct.nstime_t, %struct.nstime_t, %struct.nstime_t, i8, ptr, ptr, ptr, ptr, %struct._address, %struct._address, %struct._address, %struct._address, %struct._address, %struct._address, i32, ptr, i8, [3 x i8], %struct.anon, i32, i32, i32, i32, ptr, i8, ptr, ptr, i16, i16, i32, i32, i16, i32, i32, ptr, ptr, ptr, i8, i8, i16, i16, i16, i32, i16, i16, ptr, ptr, ptr, ptr, ptr, i32, i32 }
%struct.nstime_t = type { i64, i32 }
%struct.anon = type { i8, [3 x i8] }
%struct.tlsinfo = type { i32, i8, i8, ptr }
%struct.heur_dtbl_entry = type { ptr, ptr, ptr, ptr, ptr, i8, i8 }

@ssl_associations = internal global ptr null, align 8
@tls_try_heuristic_first = internal global ptr null, align 8
@ssl_heur_subdissector_list = internal global ptr null, align 8
@exported_pdu_tap = internal global i32 -1, align 4
@.str.1062 = private unnamed_addr constant [58 x i8] c"%s: found heuristics dissector %s, app_handle is %p (%s)\0A\00", align 1
@__func__.process_ssl_payload = private unnamed_addr constant [20 x i8] c"process_ssl_payload\00", align 1
@.str.1063 = private unnamed_addr constant [61 x i8] c"%s: no heuristics dissector, falling back to handle %p (%s)\0A\00", align 1
@.str.1064 = private unnamed_addr constant [32 x i8] c"%s: no appdata dissector found\0A\00", align 1
@.str.1065 = private unnamed_addr constant [26 x i8] c"%s: found handle %p (%s)\0A\00", align 1

; Function Attrs: null_pointer_is_valid sspstrong uwtable
define internal void @process_ssl_payload(ptr noundef %0, i32 noundef %1, ptr noundef %2, ptr noundef %3, ptr noundef %4, ptr noundef %5, ptr noundef %6) #0 {
  %8 = alloca ptr, align 8
  %9 = alloca i32, align 4
  %10 = alloca ptr, align 8
  %11 = alloca ptr, align 8
  %12 = alloca ptr, align 8
  %13 = alloca ptr, align 8
  %14 = alloca ptr, align 8
  %15 = alloca ptr, align 8
  %16 = alloca ptr, align 8
  %17 = alloca i16, align 2
  %18 = alloca i16, align 2
  %19 = alloca i8, align 1
  %20 = alloca i32, align 4
  store ptr %0, ptr %8, align 8
  store i32 %1, ptr %9, align 4
  store ptr %2, ptr %10, align 8
  store ptr %3, ptr %11, align 8
  store ptr %4, ptr %12, align 8
  store ptr %5, ptr %13, align 8
  store ptr %6, ptr %14, align 8
  call void @llvm.lifetime.start.p0(i64 8, ptr %15) #18
  call void @llvm.lifetime.start.p0(i64 8, ptr %16) #18
  call void @llvm.lifetime.start.p0(i64 2, ptr %17) #18
  call void @llvm.lifetime.start.p0(i64 2, ptr %18) #18
  call void @llvm.lifetime.start.p0(i64 1, ptr %19) #18
  %21 = load ptr, ptr %12, align 8
  %22 = getelementptr inbounds nuw %struct._SslSession, ptr %21, i32 0, i32 19
  %23 = load ptr, ptr %14, align 8
  %24 = getelementptr inbounds nuw %struct.tlsinfo, ptr %23, i32 0, i32 3
  store ptr %22, ptr %24, align 8
  %25 = load ptr, ptr %8, align 8
  %26 = load i32, ptr %9, align 4
  %27 = call ptr @tvb_new_subset_remaining(ptr noundef %25, i32 noundef %26)
  store ptr %27, ptr %15, align 8
  %28 = load ptr, ptr %12, align 8
  %29 = load ptr, ptr @ssl_associations, align 8
  %30 = load ptr, ptr %10, align 8
  %31 = call i32 @ssl_packet_from_server(ptr noundef %28, ptr noundef %29, ptr noundef %30)
  %32 = icmp ne i32 %31, 0
  br i1 %32, label %33, label %38

33:                                               ; preds = %7
  %34 = load ptr, ptr %10, align 8
  %35 = getelementptr inbounds nuw %struct._packet_info, ptr %34, i32 0, i32 24
  %36 = load i32, ptr %35, align 4
  %37 = trunc i32 %36 to i16
  store i16 %37, ptr %18, align 2
  br label %43

38:                                               ; preds = %7
  %39 = load ptr, ptr %10, align 8
  %40 = getelementptr inbounds nuw %struct._packet_info, ptr %39, i32 0, i32 25
  %41 = load i32, ptr %40, align 8
  %42 = trunc i32 %41 to i16
  store i16 %42, ptr %18, align 2
  br label %43

43:                                               ; preds = %38, %33
  %44 = load ptr, ptr %12, align 8
  %45 = getelementptr inbounds nuw %struct._SslSession, ptr %44, i32 0, i32 19
  %46 = load ptr, ptr %45, align 8
  %47 = icmp ne ptr %46, null
  br i1 %47, label %132, label %48

48:                                               ; preds = %43
  %49 = load ptr, ptr @tls_try_heuristic_first, align 8
  %50 = load i16, ptr %18, align 2
  %51 = zext i16 %50 to i32
  %52 = call zeroext i1 @value_is_in_range(ptr noundef %49, i32 noundef %51)
  %53 = zext i1 %52 to i8
  store i8 %53, ptr %19, align 1
  %54 = load i8, ptr %19, align 1, !range !6, !noundef !7
  %55 = trunc i8 %54 to i1
  br i1 %55, label %56, label %84

56:                                               ; preds = %48
  %57 = load ptr, ptr @ssl_heur_subdissector_list, align 8
  %58 = load ptr, ptr %15, align 8
  %59 = load ptr, ptr %10, align 8
  %60 = load ptr, ptr %11, align 8
  %61 = call ptr @proto_tree_get_root(ptr noundef %60)
  %62 = load ptr, ptr %14, align 8
  %63 = call zeroext i1 @dissector_try_heuristic(ptr noundef %57, ptr noundef %58, ptr noundef %59, ptr noundef %61, ptr noundef %16, ptr noundef %62)
  br i1 %63, label %64, label %84

64:                                               ; preds = %56
  %65 = load ptr, ptr %16, align 8
  %66 = getelementptr inbounds nuw %struct.heur_dtbl_entry, ptr %65, i32 0, i32 4
  %67 = load ptr, ptr %66, align 8
  %68 = load ptr, ptr %12, align 8
  %69 = getelementptr inbounds nuw %struct._SslSession, ptr %68, i32 0, i32 19
  %70 = load ptr, ptr %69, align 8
  %71 = load ptr, ptr %12, align 8
  %72 = getelementptr inbounds nuw %struct._SslSession, ptr %71, i32 0, i32 19
  %73 = load ptr, ptr %72, align 8
  %74 = call ptr @dissector_handle_get_dissector_name(ptr noundef %73)
  call void (ptr, ...) @ssl_debug_printf(ptr noundef @.str.1062, ptr noundef @__func__.process_ssl_payload, ptr noundef %67, ptr noundef %70, ptr noundef %74)
  %75 = load i32, ptr @exported_pdu_tap, align 4
  %76 = call zeroext i1 @have_tap_listener(i32 noundef %75)
  br i1 %76, label %77, label %83

77:                                               ; preds = %64
  %78 = load ptr, ptr %15, align 8
  %79 = load ptr, ptr %10, align 8
  %80 = load ptr, ptr %16, align 8
  %81 = getelementptr inbounds nuw %struct.heur_dtbl_entry, ptr %80, i32 0, i32 4
  %82 = load ptr, ptr %81, align 8
  call void @export_pdu_packet(ptr noundef %78, ptr noundef %79, i8 noundef zeroext 13, ptr noundef %82)
  br label %83

83:                                               ; preds = %77, %64
  store i32 1, ptr %20, align 4
  br label %171

84:                                               ; preds = %56, %48
  %85 = load ptr, ptr %13, align 8
  %86 = icmp ne ptr %85, null
  br i1 %86, label %87, label %94

87:                                               ; preds = %84
  %88 = load ptr, ptr %13, align 8
  %89 = load ptr, ptr %13, align 8
  %90 = call ptr @dissector_handle_get_dissector_name(ptr noundef %89)
  call void (ptr, ...) @ssl_debug_printf(ptr noundef @.str.1063, ptr noundef @__func__.process_ssl_payload, ptr noundef %88, ptr noundef %90)
  %91 = load ptr, ptr %13, align 8
  %92 = load ptr, ptr %12, align 8
  %93 = getelementptr inbounds nuw %struct._SslSession, ptr %92, i32 0, i32 19
  store ptr %91, ptr %93, align 8
  br label %131

94:                                               ; preds = %84
  %95 = load i8, ptr %19, align 1, !range !6, !noundef !7
  %96 = trunc i8 %95 to i1
  br i1 %96, label %125, label %97

97:                                               ; preds = %94
  %98 = load ptr, ptr @ssl_heur_subdissector_list, align 8
  %99 = load ptr, ptr %15, align 8
  %100 = load ptr, ptr %10, align 8
  %101 = load ptr, ptr %11, align 8
  %102 = call ptr @proto_tree_get_root(ptr noundef %101)
  %103 = load ptr, ptr %14, align 8
  %104 = call zeroext i1 @dissector_try_heuristic(ptr noundef %98, ptr noundef %99, ptr noundef %100, ptr noundef %102, ptr noundef %16, ptr noundef %103)
  br i1 %104, label %105, label %125

105:                                              ; preds = %97
  %106 = load ptr, ptr %16, align 8
  %107 = getelementptr inbounds nuw %struct.heur_dtbl_entry, ptr %106, i32 0, i32 4
  %108 = load ptr, ptr %107, align 8
  %109 = load ptr, ptr %12, align 8
  %110 = getelementptr inbounds nuw %struct._SslSession, ptr %109, i32 0, i32 19
  %111 = load ptr, ptr %110, align 8
  %112 = load ptr, ptr %12, align 8
  %113 = getelementptr inbounds nuw %struct._SslSession, ptr %112, i32 0, i32 19
  %114 = load ptr, ptr %113, align 8
  %115 = call ptr @dissector_handle_get_dissector_name(ptr noundef %114)
  call void (ptr, ...) @ssl_debug_printf(ptr noundef @.str.1062, ptr noundef @__func__.process_ssl_payload, ptr noundef %108, ptr noundef %111, ptr noundef %115)
  %116 = load i32, ptr @exported_pdu_tap, align 4
  %117 = call zeroext i1 @have_tap_listener(i32 noundef %116)
  br i1 %117, label %118, label %124

118:                                              ; preds = %105
  %119 = load ptr, ptr %15, align 8
  %120 = load ptr, ptr %10, align 8
  %121 = load ptr, ptr %16, align 8
  %122 = getelementptr inbounds nuw %struct.heur_dtbl_entry, ptr %121, i32 0, i32 4
  %123 = load ptr, ptr %122, align 8
  call void @export_pdu_packet(ptr noundef %119, ptr noundef %120, i8 noundef zeroext 13, ptr noundef %123)
  br label %124

124:                                              ; preds = %118, %105
  store i32 1, ptr %20, align 4
  br label %171

125:                                              ; preds = %97, %94
  call void (ptr, ...) @ssl_debug_printf(ptr noundef @.str.1064, ptr noundef @__func__.process_ssl_payload)
  %126 = load ptr, ptr %15, align 8
  %127 = load ptr, ptr %10, align 8
  %128 = load ptr, ptr %11, align 8
  %129 = call ptr @proto_tree_get_root(ptr noundef %128)
  %130 = call i32 @call_data_dissector(ptr noundef %126, ptr noundef %127, ptr noundef %129)
  store i32 1, ptr %20, align 4
  br label %171

131:                                              ; preds = %87
  br label %132

132:                                              ; preds = %131, %43
  %133 = load ptr, ptr %12, align 8
  %134 = getelementptr inbounds nuw %struct._SslSession, ptr %133, i32 0, i32 19
  %135 = load ptr, ptr %134, align 8
  %136 = load ptr, ptr %12, align 8
  %137 = getelementptr inbounds nuw %struct._SslSession, ptr %136, i32 0, i32 19
  %138 = load ptr, ptr %137, align 8
  %139 = call ptr @dissector_handle_get_dissector_name(ptr noundef %138)
  call void (ptr, ...) @ssl_debug_printf(ptr noundef @.str.1065, ptr noundef @__func__.process_ssl_payload, ptr noundef %135, ptr noundef %139)
  %140 = load i32, ptr @exported_pdu_tap, align 4
  %141 = call zeroext i1 @have_tap_listener(i32 noundef %140)
  br i1 %141, label %142, label %149

142:                                              ; preds = %132
  %143 = load ptr, ptr %15, align 8
  %144 = load ptr, ptr %10, align 8
  %145 = load ptr, ptr %12, align 8
  %146 = getelementptr inbounds nuw %struct._SslSession, ptr %145, i32 0, i32 19
  %147 = load ptr, ptr %146, align 8
  %148 = call ptr @dissector_handle_get_dissector_name(ptr noundef %147)
  call void @export_pdu_packet(ptr noundef %143, ptr noundef %144, i8 noundef zeroext 12, ptr noundef %148)
  br label %149

149:                                              ; preds = %142, %132
  %150 = load ptr, ptr %10, align 8
  %151 = getelementptr inbounds nuw %struct._packet_info, ptr %150, i32 0, i32 26
  %152 = load i32, ptr %151, align 4
  %153 = trunc i32 %152 to i16
  store i16 %153, ptr %17, align 2
  %154 = load i16, ptr %18, align 2
  %155 = zext i16 %154 to i32
  %156 = load ptr, ptr %10, align 8
  %157 = getelementptr inbounds nuw %struct._packet_info, ptr %156, i32 0, i32 26
  store i32 %155, ptr %157, align 4
  %158 = load ptr, ptr %12, align 8
  %159 = getelementptr inbounds nuw %struct._SslSession, ptr %158, i32 0, i32 19
  %160 = load ptr, ptr %159, align 8
  %161 = load ptr, ptr %15, align 8
  %162 = load ptr, ptr %10, align 8
  %163 = load ptr, ptr %11, align 8
  %164 = call ptr @proto_tree_get_root(ptr noundef %163)
  %165 = load ptr, ptr %14, align 8
  %166 = call i32 @call_dissector_with_data(ptr noundef %160, ptr noundef %161, ptr noundef %162, ptr noundef %164, ptr noundef %165)
  %167 = load i16, ptr %17, align 2
  %168 = zext i16 %167 to i32
  %169 = load ptr, ptr %10, align 8
  %170 = getelementptr inbounds nuw %struct._packet_info, ptr %169, i32 0, i32 26
  store i32 %168, ptr %170, align 4
  store i32 0, ptr %20, align 4
  br label %171

171:                                              ; preds = %149, %125, %124, %83
  call void @llvm.lifetime.end.p0(i64 1, ptr %19) #18
  call void @llvm.lifetime.end.p0(i64 2, ptr %18) #18
  call void @llvm.lifetime.end.p0(i64 2, ptr %17) #18
  call void @llvm.lifetime.end.p0(i64 8, ptr %16) #18
  call void @llvm.lifetime.end.p0(i64 8, ptr %15) #18
  %172 = load i32, ptr %20, align 4
  switch i32 %172, label %174 [
    i32 0, label %173
    i32 1, label %173
  ]

173:                                              ; preds = %171, %171
  ret void

174:                                              ; preds = %171
  unreachable
}