; Function Attrs: null_pointer_is_valid sspstrong uwtable
define internal fastcc void @process_ssl_payload(ptr noundef %0, i32 noundef %1, ptr noundef %2, ptr noundef %3, ptr noundef %4, ptr noundef %5, ptr noundef initializes((8, 16)) %6) unnamed_addr #0 {
  %8 = alloca ptr, align 8
  call void @llvm.lifetime.start.p0(i64 8, ptr nonnull %8) #15
  %9 = getelementptr inbounds nuw i8, ptr %4, i64 152
  %10 = getelementptr inbounds nuw i8, ptr %6, i64 8
  store ptr %9, ptr %10, align 8
  %11 = tail call ptr @tvb_new_subset_remaining(ptr noundef %0, i32 noundef %1)
  %12 = load ptr, ptr @ssl_associations, align 8
  %13 = tail call i32 @ssl_packet_from_server(ptr noundef %4, ptr noundef %12, ptr noundef %2)
  %.not = icmp eq i32 %13, 0
  %.0.in.in.v = select i1 %.not, i64 288, i64 284
  %.0.in.in = getelementptr inbounds nuw i8, ptr %2, i64 %.0.in.in.v
  %.0.in = load i32, ptr %.0.in.in, align 4
  %14 = load ptr, ptr %9, align 8
  %.not51 = icmp eq ptr %14, null
  br i1 %.not51, label %15, label %64

15:                                               ; preds = %7
  %16 = load ptr, ptr @tls_try_heuristic_first, align 8
  %17 = and i32 %.0.in, 65535
  %18 = tail call zeroext i1 @value_is_in_range(ptr noundef %16, i32 noundef %17)
  br i1 %18, label %19, label %.thread

19:                                               ; preds = %15
  %20 = load ptr, ptr @ssl_heur_subdissector_list, align 8
  %21 = tail call ptr @proto_tree_get_root(ptr noundef %3)
  %22 = call zeroext i1 @dissector_try_heuristic(ptr noundef %20, ptr noundef %11, ptr noundef %2, ptr noundef %21, ptr noundef nonnull %8, ptr noundef %6)
  br i1 %22, label %23, label %42

23:                                               ; preds = %19
  %24 = load ptr, ptr %8, align 8
  %25 = getelementptr inbounds nuw i8, ptr %24, i64 32
  %26 = load ptr, ptr %25, align 8
  %27 = load ptr, ptr %9, align 8
  %28 = call ptr @dissector_handle_get_dissector_name(ptr noundef %27)
  call void (ptr, ...) @ssl_debug_printf(ptr noundef nonnull @.str.1062, ptr noundef nonnull @__func__.process_ssl_payload, ptr noundef %26, ptr noundef %27, ptr noundef %28)
  %29 = load i32, ptr @exported_pdu_tap, align 4
  %30 = call zeroext i1 @have_tap_listener(i32 noundef %29)
  br i1 %30, label %31, label %87

31:                                               ; preds = %23
  %32 = load ptr, ptr %8, align 8
  %33 = getelementptr inbounds nuw i8, ptr %32, i64 32
  %34 = load ptr, ptr %33, align 8
  %35 = call ptr @export_pdu_create_common_tags(ptr noundef %2, ptr noundef %34, i16 noundef zeroext 13)
  %36 = call i32 @tvb_captured_length(ptr noundef %11)
  %37 = getelementptr inbounds nuw i8, ptr %35, i64 16
  store i32 %36, ptr %37, align 8
  %38 = call i32 @tvb_reported_length(ptr noundef %11)
  %39 = getelementptr inbounds nuw i8, ptr %35, i64 20
  store i32 %38, ptr %39, align 4
  %40 = getelementptr inbounds nuw i8, ptr %35, i64 24
  store ptr %11, ptr %40, align 8
  %41 = load i32, ptr @exported_pdu_tap, align 4
  call void @tap_queue_packet(i32 noundef %41, ptr noundef %2, ptr noundef %35)
  br label %87

42:                                               ; preds = %19
  %.not52 = icmp eq ptr %5, null
  br i1 %.not52, label %61, label %43

.thread:                                          ; preds = %15
  %.not5253 = icmp eq ptr %5, null
  br i1 %.not5253, label %45, label %43

43:                                               ; preds = %.thread, %42
  %44 = call ptr @dissector_handle_get_dissector_name(ptr noundef nonnull %5)
  call void (ptr, ...) @ssl_debug_printf(ptr noundef nonnull @.str.1063, ptr noundef nonnull @__func__.process_ssl_payload, ptr noundef nonnull %5, ptr noundef %44)
  store ptr %5, ptr %9, align 8
  br label %64

45:                                               ; preds = %.thread
  %46 = load ptr, ptr @ssl_heur_subdissector_list, align 8
  %47 = tail call ptr @proto_tree_get_root(ptr noundef %3)
  %48 = call zeroext i1 @dissector_try_heuristic(ptr noundef %46, ptr noundef %11, ptr noundef %2, ptr noundef %47, ptr noundef nonnull %8, ptr noundef %6)
  br i1 %48, label %49, label %61

49:                                               ; preds = %45
  %50 = load ptr, ptr %8, align 8
  %51 = getelementptr inbounds nuw i8, ptr %50, i64 32
  %52 = load ptr, ptr %51, align 8
  %53 = load ptr, ptr %9, align 8
  %54 = call ptr @dissector_handle_get_dissector_name(ptr noundef %53)
  call void (ptr, ...) @ssl_debug_printf(ptr noundef nonnull @.str.1062, ptr noundef nonnull @__func__.process_ssl_payload, ptr noundef %52, ptr noundef %53, ptr noundef %54)
  %55 = load i32, ptr @exported_pdu_tap, align 4
  %56 = call zeroext i1 @have_tap_listener(i32 noundef %55)
  br i1 %56, label %57, label %87

57:                                               ; preds = %49
  %58 = load ptr, ptr %8, align 8
  %59 = getelementptr inbounds nuw i8, ptr %58, i64 32
  %60 = load ptr, ptr %59, align 8
  call fastcc void @export_pdu_packet(ptr noundef %11, ptr noundef %2, i8 noundef zeroext 13, ptr noundef %60)
  br label %87

61:                                               ; preds = %42, %45
  call void (ptr, ...) @ssl_debug_printf(ptr noundef nonnull @.str.1064, ptr noundef nonnull @__func__.process_ssl_payload)
  %62 = call ptr @proto_tree_get_root(ptr noundef %3)
  %63 = call i32 @call_data_dissector(ptr noundef %11, ptr noundef %2, ptr noundef %62)
  br label %87

64:                                               ; preds = %43, %7
  %65 = phi ptr [ %5, %43 ], [ %14, %7 ]
  %66 = call ptr @dissector_handle_get_dissector_name(ptr noundef nonnull %65)
  call void (ptr, ...) @ssl_debug_printf(ptr noundef nonnull @.str.1065, ptr noundef nonnull @__func__.process_ssl_payload, ptr noundef nonnull %65, ptr noundef %66)
  %67 = load i32, ptr @exported_pdu_tap, align 4
  %68 = call zeroext i1 @have_tap_listener(i32 noundef %67)
  br i1 %68, label %69, label %79

69:                                               ; preds = %64
  %70 = load ptr, ptr %9, align 8
  %71 = call ptr @dissector_handle_get_dissector_name(ptr noundef %70)
  %72 = call ptr @export_pdu_create_common_tags(ptr noundef %2, ptr noundef %71, i16 noundef zeroext 12)
  %73 = call i32 @tvb_captured_length(ptr noundef %11)
  %74 = getelementptr inbounds nuw i8, ptr %72, i64 16
  store i32 %73, ptr %74, align 8
  %75 = call i32 @tvb_reported_length(ptr noundef %11)
  %76 = getelementptr inbounds nuw i8, ptr %72, i64 20
  store i32 %75, ptr %76, align 4
  %77 = getelementptr inbounds nuw i8, ptr %72, i64 24
  store ptr %11, ptr %77, align 8
  %78 = load i32, ptr @exported_pdu_tap, align 4
  call void @tap_queue_packet(i32 noundef %78, ptr noundef %2, ptr noundef %72)
  br label %79

79:                                               ; preds = %69, %64
  %80 = getelementptr inbounds nuw i8, ptr %2, i64 292
  %81 = load i32, ptr %80, align 4
  %82 = and i32 %.0.in, 65535
  store i32 %82, ptr %80, align 4
  %83 = load ptr, ptr %9, align 8
  %84 = call ptr @proto_tree_get_root(ptr noundef %3)
  %85 = call i32 @call_dissector_with_data(ptr noundef %83, ptr noundef %11, ptr noundef %2, ptr noundef %84, ptr noundef %6)
  %86 = and i32 %81, 65535
  store i32 %86, ptr %80, align 4
  br label %87

87:                                               ; preds = %49, %57, %23, %31, %79, %61
  call void @llvm.lifetime.end.p0(i64 8, ptr nonnull %8) #15
  ret void
}